target datalayout = "e-m:e-p270:32:32-p271:32:32-p272:64:64-i64:64-i128:128-f80:128-n8:16:32:64-S128"
target triple = "x86_64-pc-linux-gnu"

%struct.Node = type { i32 }
%struct.ForEachState = type { ptr, i32 }
%struct.List = type { i32, i32, i32, ptr, [0 x %union.ListCell] }
%union.ListCell = type { ptr }
%struct.ColumnRef = type { i32, ptr, i32 }
%struct.A_Indirection = type { i32, ptr, ptr }

; Function Attrs: inlinehint nounwind uwtable
define internal i32 @list_length(ptr noundef %0) #4 {
  %2 = alloca ptr, align 8
  store ptr %0, ptr %2, align 8
  %3 = load ptr, ptr %2, align 8
  %4 = icmp ne ptr %3, null
  br i1 %4, label %5, label %9

5:                                                ; preds = %1
  %6 = load ptr, ptr %2, align 8
  %7 = getelementptr inbounds nuw %struct.List, ptr %6, i32 0, i32 1
  %8 = load i32, ptr %7, align 4
  br label %10

9:                                                ; preds = %1
  br label %10

10:                                               ; preds = %9, %5
  %11 = phi i32 [ %8, %5 ], [ 0, %9 ]
  ret i32 %11
}

; Function Attrs: nounwind uwtable
define internal ptr @ExpandIndirectionStar(ptr noundef %0, ptr noundef %1, i1 noundef zeroext %2, i32 noundef %3) #0 {
  %5 = alloca ptr, align 8
  %6 = alloca ptr, align 8
  %7 = alloca i8, align 1
  %8 = alloca i32, align 4
  %9 = alloca ptr, align 8
  store ptr %0, ptr %5, align 8
  store ptr %1, ptr %6, align 8
  %10 = zext i1 %2 to i8
  store i8 %10, ptr %7, align 1
  store i32 %3, ptr %8, align 4
  call void @llvm.lifetime.start.p0(i64 8, ptr %9) #8
  %11 = load ptr, ptr %6, align 8
  %12 = call ptr @copyObjectImpl(ptr noundef %11)
  store ptr %12, ptr %6, align 8
  %13 = load ptr, ptr %6, align 8
  %14 = getelementptr inbounds nuw %struct.A_Indirection, ptr %13, i32 0, i32 2
  %15 = load ptr, ptr %14, align 8
  %16 = load ptr, ptr %6, align 8
  %17 = getelementptr inbounds nuw %struct.A_Indirection, ptr %16, i32 0, i32 2
  %18 = load ptr, ptr %17, align 8
  %19 = call i32 @list_length(ptr noundef %18)
  %20 = sub i32 %19, 1
  %21 = call ptr @list_truncate(ptr noundef %15, i32 noundef %20)
  %22 = load ptr, ptr %6, align 8
  %23 = getelementptr inbounds nuw %struct.A_Indirection, ptr %22, i32 0, i32 2
  store ptr %21, ptr %23, align 8
  %24 = load ptr, ptr %5, align 8
  %25 = load ptr, ptr %6, align 8
  %26 = load i32, ptr %8, align 4
  %27 = call ptr @transformExpr(ptr noundef %24, ptr noundef %25, i32 noundef %26)
  store ptr %27, ptr %9, align 8
  %28 = load ptr, ptr %5, align 8
  %29 = load ptr, ptr %9, align 8
  %30 = load i8, ptr %7, align 1, !range !4, !noundef !5
  %31 = trunc i8 %30 to i1
  %32 = call ptr @ExpandRowReference(ptr noundef %28, ptr noundef %29, i1 noundef zeroext %31)
  call void @llvm.lifetime.end.p0(i64 8, ptr %9) #8
  ret ptr %32
}

; Function Attrs: inlinehint nounwind uwtable
define internal ptr @list_last_cell(ptr noundef %0) #4 {
  %2 = alloca ptr, align 8
  store ptr %0, ptr %2, align 8
  %3 = load ptr, ptr %2, align 8
  %4 = getelementptr inbounds nuw %struct.List, ptr %3, i32 0, i32 3
  %5 = load ptr, ptr %4, align 8
  %6 = load ptr, ptr %2, align 8
  %7 = getelementptr inbounds nuw %struct.List, ptr %6, i32 0, i32 1
  %8 = load i32, ptr %7, align 4
  %9 = sub i32 %8, 1
  %10 = sext i32 %9 to i64
  %11 = getelementptr inbounds %union.ListCell, ptr %5, i64 %10
  ret ptr %11
}

; Function Attrs: nounwind uwtable
define dso_local ptr @transformExpressionList(ptr noundef %0, ptr noundef %1, i32 noundef %2, i1 noundef zeroext %3) #0 {
  %5 = alloca ptr, align 8
  %6 = alloca ptr, align 8
  %7 = alloca i32, align 4
  %8 = alloca i8, align 1
  %9 = alloca ptr, align 8
  %10 = alloca ptr, align 8
  %11 = alloca %struct.ForEachState, align 8
  %12 = alloca i32, align 4
  %13 = alloca ptr, align 8
  %14 = alloca ptr, align 8
  %15 = alloca ptr, align 8
  store ptr %0, ptr %5, align 8
  store ptr %1, ptr %6, align 8
  store i32 %2, ptr %7, align 4
  %16 = zext i1 %3 to i8
  store i8 %16, ptr %8, align 1
  call void @llvm.lifetime.start.p0(i64 8, ptr %9) #8
  store ptr null, ptr %9, align 8
  call void @llvm.lifetime.start.p0(i64 8, ptr %10) #8
  call void @llvm.lifetime.start.p0(i64 16, ptr %11) #8
  %17 = getelementptr inbounds nuw %struct.ForEachState, ptr %11, i32 0, i32 0
  %18 = load ptr, ptr %6, align 8
  store ptr %18, ptr %17, align 8
  %19 = getelementptr inbounds nuw %struct.ForEachState, ptr %11, i32 0, i32 1
  store i32 0, ptr %19, align 8
  %20 = getelementptr i8, ptr %11, i64 12
  call void @llvm.memset.p0.i64(ptr align 4 %20, i8 0, i64 4, i1 false)
  br label %21

21:                                               ; preds = %122, %4
  %22 = getelementptr inbounds nuw %struct.ForEachState, ptr %11, i32 0, i32 0
  %23 = load ptr, ptr %22, align 8
  %24 = icmp ne ptr %23, null
  br i1 %24, label %25, label %42

25:                                               ; preds = %21
  %26 = getelementptr inbounds nuw %struct.ForEachState, ptr %11, i32 0, i32 1
  %27 = load i32, ptr %26, align 8
  %28 = getelementptr inbounds nuw %struct.ForEachState, ptr %11, i32 0, i32 0
  %29 = load ptr, ptr %28, align 8
  %30 = getelementptr inbounds nuw %struct.List, ptr %29, i32 0, i32 1
  %31 = load i32, ptr %30, align 4
  %32 = icmp slt i32 %27, %31
  br i1 %32, label %33, label %42

33:                                               ; preds = %25
  %34 = getelementptr inbounds nuw %struct.ForEachState, ptr %11, i32 0, i32 0
  %35 = load ptr, ptr %34, align 8
  %36 = getelementptr inbounds nuw %struct.List, ptr %35, i32 0, i32 3
  %37 = load ptr, ptr %36, align 8
  %38 = getelementptr inbounds nuw %struct.ForEachState, ptr %11, i32 0, i32 1
  %39 = load i32, ptr %38, align 8
  %40 = sext i32 %39 to i64
  %41 = getelementptr inbounds %union.ListCell, ptr %37, i64 %40
  store ptr %41, ptr %10, align 8
  br label %43

42:                                               ; preds = %25, %21
  store ptr null, ptr %10, align 8
  br label %43

43:                                               ; preds = %42, %33
  %44 = phi i32 [ 1, %33 ], [ 0, %42 ]
  %45 = icmp ne i32 %44, 0
  br i1 %45, label %47, label %46

46:                                               ; preds = %43
  store i32 2, ptr %12, align 4
  call void @llvm.lifetime.end.p0(i64 16, ptr %11) #8
  br label %126

47:                                               ; preds = %43
  call void @llvm.lifetime.start.p0(i64 8, ptr %13) #8
  %48 = load ptr, ptr %10, align 8
  %49 = load ptr, ptr %48, align 8
  store ptr %49, ptr %13, align 8
  %50 = load ptr, ptr %13, align 8
  %51 = getelementptr inbounds nuw %struct.Node, ptr %50, i32 0, i32 0
  %52 = load i32, ptr %51, align 4
  %53 = icmp eq i32 %52, 69
  br i1 %53, label %54, label %74

54:                                               ; preds = %47
  call void @llvm.lifetime.start.p0(i64 8, ptr %14) #8
  %55 = load ptr, ptr %13, align 8
  store ptr %55, ptr %14, align 8
  %56 = load ptr, ptr %14, align 8
  %57 = getelementptr inbounds nuw %struct.ColumnRef, ptr %56, i32 0, i32 1
  %58 = load ptr, ptr %57, align 8
  %59 = call ptr @list_last_cell(ptr noundef %58)
  %60 = load ptr, ptr %59, align 8
  %61 = getelementptr inbounds nuw %struct.Node, ptr %60, i32 0, i32 0
  %62 = load i32, ptr %61, align 4
  %63 = icmp eq i32 %62, 77
  br i1 %63, label %64, label %70

64:                                               ; preds = %54
  %65 = load ptr, ptr %9, align 8
  %66 = load ptr, ptr %5, align 8
  %67 = load ptr, ptr %14, align 8
  %68 = call ptr @ExpandColumnRefStar(ptr noundef %66, ptr noundef %67, i1 noundef zeroext false)
  %69 = call ptr @list_concat(ptr noundef %65, ptr noundef %68)
  store ptr %69, ptr %9, align 8
  store i32 4, ptr %12, align 4
  br label %71

70:                                               ; preds = %54
  store i32 0, ptr %12, align 4
  br label %71

71:                                               ; preds = %70, %64
  call void @llvm.lifetime.end.p0(i64 8, ptr %14) #8
  %72 = load i32, ptr %12, align 4
  switch i32 %72, label %119 [
    i32 0, label %73
  ]

73:                                               ; preds = %71
  br label %101

74:                                               ; preds = %47
  %75 = load ptr, ptr %13, align 8
  %76 = getelementptr inbounds nuw %struct.Node, ptr %75, i32 0, i32 0
  %77 = load i32, ptr %76, align 4
  %78 = icmp eq i32 %77, 79
  br i1 %78, label %79, label %100

79:                                               ; preds = %74
  call void @llvm.lifetime.start.p0(i64 8, ptr %15) #8
  %80 = load ptr, ptr %13, align 8
  store ptr %80, ptr %15, align 8
  %81 = load ptr, ptr %15, align 8
  %82 = getelementptr inbounds nuw %struct.A_Indirection, ptr %81, i32 0, i32 2
  %83 = load ptr, ptr %82, align 8
  %84 = call ptr @list_last_cell(ptr noundef %83)
  %85 = load ptr, ptr %84, align 8
  %86 = getelementptr inbounds nuw %struct.Node, ptr %85, i32 0, i32 0
  %87 = load i32, ptr %86, align 4
  %88 = icmp eq i32 %87, 77
  br i1 %88, label %89, label %96

89:                                               ; preds = %79
  %90 = load ptr, ptr %9, align 8
  %91 = load ptr, ptr %5, align 8
  %92 = load ptr, ptr %15, align 8
  %93 = load i32, ptr %7, align 4
  %94 = call ptr @ExpandIndirectionStar(ptr noundef %91, ptr noundef %92, i1 noundef zeroext false, i32 noundef %93)
  %95 = call ptr @list_concat(ptr noundef %90, ptr noundef %94)
  store ptr %95, ptr %9, align 8
  store i32 4, ptr %12, align 4
  br label %97

96:                                               ; preds = %79
  store i32 0, ptr %12, align 4
  br label %97

97:                                               ; preds = %96, %89
  call void @llvm.lifetime.end.p0(i64 8, ptr %15) #8
  %98 = load i32, ptr %12, align 4
  switch i32 %98, label %119 [
    i32 0, label %99
  ]

99:                                               ; preds = %97
  br label %100

100:                                              ; preds = %99, %74
  br label %101

101:                                              ; preds = %100, %73
  %102 = load i8, ptr %8, align 1, !range !4, !noundef !5
  %103 = trunc i8 %102 to i1
  br i1 %103, label %104, label %110

104:                                              ; preds = %101
  %105 = load ptr, ptr %13, align 8
  %106 = getelementptr inbounds nuw %struct.Node, ptr %105, i32 0, i32 0
  %107 = load i32, ptr %106, align 4
  %108 = icmp eq i32 %107, 57
  br i1 %108, label %109, label %110

109:                                              ; preds = %104
  br label %115

110:                                              ; preds = %104, %101
  %111 = load ptr, ptr %5, align 8
  %112 = load ptr, ptr %13, align 8
  %113 = load i32, ptr %7, align 4
  %114 = call ptr @transformExpr(ptr noundef %111, ptr noundef %112, i32 noundef %113)
  store ptr %114, ptr %13, align 8
  br label %115

115:                                              ; preds = %110, %109
  %116 = load ptr, ptr %9, align 8
  %117 = load ptr, ptr %13, align 8
  %118 = call ptr @lappend(ptr noundef %116, ptr noundef %117)
  store ptr %118, ptr %9, align 8
  store i32 0, ptr %12, align 4
  br label %119

119:                                              ; preds = %115, %97, %71
  call void @llvm.lifetime.end.p0(i64 8, ptr %13) #8
  %120 = load i32, ptr %12, align 4
  switch i32 %120, label %128 [
    i32 0, label %121
    i32 4, label %122
  ]

121:                                              ; preds = %119
  br label %122

122:                                              ; preds = %121, %119
  %123 = getelementptr inbounds nuw %struct.ForEachState, ptr %11, i32 0, i32 1
  %124 = load i32, ptr %123, align 8
  %125 = add i32 %124, 1
  store i32 %125, ptr %123, align 8
  br label %21, !llvm.loop !8

126:                                              ; preds = %46
  %127 = load ptr, ptr %9, align 8
  store i32 1, ptr %12, align 4
  call void @llvm.lifetime.end.p0(i64 8, ptr %10) #8
  call void @llvm.lifetime.end.p0(i64 8, ptr %9) #8
  ret ptr %127

128:                                              ; preds = %119
  unreachable
}