; Function Attrs: nounwind uwtable
define dso_local ptr @transformExpressionList(ptr noundef %0, ptr noundef readonly captures(address_is_null) %1, i32 noundef %2, i1 noundef zeroext %3) local_unnamed_addr #0 {
  %5 = getelementptr inbounds nuw i8, ptr %1, i64 4
  %.not = icmp eq ptr %1, null
  br i1 %.not, label %._crit_edge, label %.lr.ph

.lr.ph:                                           ; preds = %4
  %6 = getelementptr inbounds nuw i8, ptr %1, i64 16
  %7 = load i32, ptr %5, align 4
  %8 = icmp sgt i32 %7, 0
  br i1 %8, label %.lr.ph54, label %._crit_edge

._crit_edge:                                      ; preds = %54, %.lr.ph, %4
  %.0.lcssa = phi ptr [ null, %4 ], [ null, %.lr.ph ], [ %.2, %54 ]
  ret ptr %.0.lcssa

.lr.ph54:                                         ; preds = %.lr.ph, %54
  %.04853 = phi ptr [ %.2, %54 ], [ null, %.lr.ph ]
  %indvars.iv52 = phi i64 [ %indvars.iv.next, %54 ], [ 0, %.lr.ph ]
  %9 = load ptr, ptr %6, align 8
  %10 = getelementptr inbounds nuw %union.ListCell, ptr %9, i64 %indvars.iv52
  %11 = load ptr, ptr %10, align 8
  %12 = load i32, ptr %11, align 4
  switch i32 %12, label %48 [
    i32 69, label %13
    i32 79, label %25
  ]

13:                                               ; preds = %.lr.ph54
  %14 = getelementptr inbounds nuw i8, ptr %11, i64 8
  %15 = load ptr, ptr %14, align 8
  %16 = getelementptr i8, ptr %15, i64 4
  %.val39 = load i32, ptr %16, align 4
  %17 = getelementptr i8, ptr %15, i64 16
  %.val40 = load ptr, ptr %17, align 8
  %18 = add i32 %.val39, -1
  %19 = sext i32 %18 to i64
  %20 = getelementptr inbounds %union.ListCell, ptr %.val40, i64 %19
  %21 = load ptr, ptr %20, align 8
  %22 = load i32, ptr %21, align 4
  %.not37 = icmp eq i32 %22, 77
  br i1 %.not37, label %.thread43, label %48

.thread43:                                        ; preds = %13
  %23 = tail call fastcc ptr @ExpandColumnRefStar(ptr noundef %0, ptr noundef nonnull %11, i1 noundef zeroext false)
  %24 = tail call ptr @list_concat(ptr noundef %.04853, ptr noundef %23) #8
  br label %54

25:                                               ; preds = %.lr.ph54
  %26 = getelementptr inbounds nuw i8, ptr %11, i64 16
  %27 = load ptr, ptr %26, align 8
  %28 = getelementptr i8, ptr %27, i64 4
  %.val = load i32, ptr %28, align 4
  %29 = getelementptr i8, ptr %27, i64 16
  %.val38 = load ptr, ptr %29, align 8
  %30 = add i32 %.val, -1
  %31 = sext i32 %30 to i64
  %32 = getelementptr inbounds %union.ListCell, ptr %.val38, i64 %31
  %33 = load ptr, ptr %32, align 8
  %34 = load i32, ptr %33, align 4
  %.not36 = icmp eq i32 %34, 77
  br i1 %.not36, label %35, label %48

35:                                               ; preds = %25
  %36 = tail call ptr @copyObjectImpl(ptr noundef nonnull %11) #8
  %37 = getelementptr inbounds nuw i8, ptr %36, i64 16
  %38 = load ptr, ptr %37, align 8
  %.not.i.i = icmp eq ptr %38, null
  br i1 %.not.i.i, label %.thread45, label %39

39:                                               ; preds = %35
  %40 = getelementptr inbounds nuw i8, ptr %38, i64 4
  %41 = load i32, ptr %40, align 4
  %42 = add i32 %41, -1
  br label %.thread45

.thread45:                                        ; preds = %39, %35
  %43 = phi i32 [ %42, %39 ], [ -1, %35 ]
  %44 = tail call ptr @list_truncate(ptr noundef %38, i32 noundef %43) #8
  store ptr %44, ptr %37, align 8
  %45 = tail call ptr @transformExpr(ptr noundef %0, ptr noundef nonnull %36, i32 noundef %2) #8
  %46 = tail call fastcc ptr @ExpandRowReference(ptr noundef %0, ptr noundef %45, i1 noundef zeroext false)
  %47 = tail call ptr @list_concat(ptr noundef %.04853, ptr noundef %46) #8
  br label %54

48:                                               ; preds = %25, %13, %.lr.ph54
  %49 = icmp eq i32 %12, 57
  %or.cond = and i1 %3, %49
  br i1 %or.cond, label %52, label %50

50:                                               ; preds = %48
  %51 = tail call ptr @transformExpr(ptr noundef %0, ptr noundef nonnull %11, i32 noundef %2) #8
  br label %52

52:                                               ; preds = %48, %50
  %.030 = phi ptr [ %51, %50 ], [ %11, %48 ]
  %53 = tail call ptr @lappend(ptr noundef %.04853, ptr noundef %.030) #8
  br label %54

54:                                               ; preds = %.thread45, %.thread43, %52
  %.2 = phi ptr [ %53, %52 ], [ %24, %.thread43 ], [ %47, %.thread45 ]
  %indvars.iv.next = add nuw nsw i64 %indvars.iv52, 1
  %55 = load i32, ptr %5, align 4
  %56 = sext i32 %55 to i64
  %57 = icmp slt i64 %indvars.iv.next, %56
  br i1 %57, label %.lr.ph54, label %._crit_edge
}